target datalayout = "e-m:e-p270:32:32-p271:32:32-p272:64:64-i64:64-i128:128-f80:128-n8:16:32:64-S128"
target triple = "x86_64-pc-linux-gnu"

%struct.AVChannelLayout = type { i32, i32, %union.anon.1, ptr }
%union.anon.1 = type { i64 }
%struct.AVFilterContext = type { ptr, ptr, ptr, ptr, ptr, i32, ptr, ptr, i32, ptr, ptr, i32, i32, ptr, ptr, ptr, ptr, i32, ptr, i32, i32 }
%struct.CrossfeedContext = type { ptr, double, double, double, double, double, i32, i32, double, double, double, double, double, double, double, double, i64, i32, ptr, [3 x ptr] }
%struct.AVFilterLink = type { ptr, ptr, ptr, ptr, i32, i32, i32, i32, %struct.AVRational, i32, i32, i32, %struct.AVChannelLayout, %struct.AVRational, ptr, i32, %struct.AVFilterFormatsConfig, %struct.AVFilterFormatsConfig }
%struct.AVRational = type { i32, i32 }
%struct.AVFilterFormatsConfig = type { ptr, ptr, ptr, ptr, ptr }

; Function Attrs: alwaysinline nounwind uwtable
define internal double @ff_exp10(double noundef %0) #3 {
  %2 = alloca double, align 8
  store double %0, ptr %2, align 8, !tbaa !50
  %3 = load double, ptr %2, align 8, !tbaa !50
  %4 = fmul nsz double 0x400A934F0979A371, %3
  %5 = call nsz double @llvm.exp2.f64(double %4)
  ret double %5
}

; Function Attrs: nounwind uwtable
define internal i32 @config_input(ptr noundef %0) #1 {
  %2 = alloca i32, align 4
  %3 = alloca ptr, align 8
  %4 = alloca ptr, align 8
  %5 = alloca ptr, align 8
  %6 = alloca double, align 8
  %7 = alloca double, align 8
  %8 = alloca double, align 8
  %9 = alloca i32, align 4
  %10 = alloca i32, align 4
  store ptr %0, ptr %3, align 8, !tbaa !31
  call void @llvm.lifetime.start.p0(i64 8, ptr %4) #8
  %11 = load ptr, ptr %3, align 8, !tbaa !31
  %12 = getelementptr inbounds nuw %struct.AVFilterLink, ptr %11, i32 0, i32 2
  %13 = load ptr, ptr %12, align 8, !tbaa !41
  store ptr %13, ptr %4, align 8, !tbaa !4
  call void @llvm.lifetime.start.p0(i64 8, ptr %5) #8
  %14 = load ptr, ptr %4, align 8, !tbaa !4
  %15 = getelementptr inbounds nuw %struct.AVFilterContext, ptr %14, i32 0, i32 9
  %16 = load ptr, ptr %15, align 8, !tbaa !9
  store ptr %16, ptr %5, align 8, !tbaa !22
  call void @llvm.lifetime.start.p0(i64 8, ptr %6) #8
  %17 = load ptr, ptr %5, align 8, !tbaa !22
  %18 = getelementptr inbounds nuw %struct.CrossfeedContext, ptr %17, i32 0, i32 2
  %19 = load double, ptr %18, align 8, !tbaa !49
  %20 = fmul nsz double %19, -3.000000e+01
  %21 = fdiv nsz double %20, 4.000000e+01
  %22 = call nsz double @ff_exp10(double noundef %21)
  store double %22, ptr %6, align 8, !tbaa !50
  call void @llvm.lifetime.start.p0(i64 8, ptr %7) #8
  %23 = load ptr, ptr %5, align 8, !tbaa !22
  %24 = getelementptr inbounds nuw %struct.CrossfeedContext, ptr %23, i32 0, i32 1
  %25 = load double, ptr %24, align 8, !tbaa !51
  %26 = fsub nsz double 1.000000e+00, %25
  %27 = fmul nsz double 0x401921FB54442D18, %26
  %28 = fmul nsz double %27, 2.100000e+03
  %29 = load ptr, ptr %3, align 8, !tbaa !31
  %30 = getelementptr inbounds nuw %struct.AVFilterLink, ptr %29, i32 0, i32 11
  %31 = load i32, ptr %30, align 8, !tbaa !52
  %32 = sitofp i32 %31 to double
  %33 = fdiv nsz double %28, %32
  store double %33, ptr %7, align 8, !tbaa !50
  call void @llvm.lifetime.start.p0(i64 8, ptr %8) #8
  %34 = load double, ptr %7, align 8, !tbaa !50
  %35 = call nsz double @llvm.sin.f64(double %34)
  %36 = fdiv nsz double %35, 2.000000e+00
  %37 = load double, ptr %6, align 8, !tbaa !50
  %38 = load double, ptr %6, align 8, !tbaa !50
  %39 = fdiv nsz double 1.000000e+00, %38
  %40 = fadd nsz double %37, %39
  %41 = load ptr, ptr %5, align 8, !tbaa !22
  %42 = getelementptr inbounds nuw %struct.CrossfeedContext, ptr %41, i32 0, i32 3
  %43 = load double, ptr %42, align 8, !tbaa !53
  %44 = fdiv nsz double 1.000000e+00, %43
  %45 = fsub nsz double %44, 1.000000e+00
  %46 = call nsz double @llvm.fmuladd.f64(double %40, double %45, double 2.000000e+00)
  %47 = call nsz double @llvm.sqrt.f64(double %46)
  %48 = fmul nsz double %36, %47
  store double %48, ptr %8, align 8, !tbaa !50
  %49 = load double, ptr %6, align 8, !tbaa !50
  %50 = fadd nsz double %49, 1.000000e+00
  %51 = load double, ptr %6, align 8, !tbaa !50
  %52 = fsub nsz double %51, 1.000000e+00
  %53 = load double, ptr %7, align 8, !tbaa !50
  %54 = call nsz double @llvm.cos.f64(double %53)
  %55 = call nsz double @llvm.fmuladd.f64(double %52, double %54, double %50)
  %56 = load double, ptr %6, align 8, !tbaa !50
  %57 = call nsz double @llvm.sqrt.f64(double %56)
  %58 = fmul nsz double 2.000000e+00, %57
  %59 = load double, ptr %8, align 8, !tbaa !50
  %60 = call nsz double @llvm.fmuladd.f64(double %58, double %59, double %55)
  %61 = load ptr, ptr %5, align 8, !tbaa !22
  %62 = getelementptr inbounds nuw %struct.CrossfeedContext, ptr %61, i32 0, i32 8
  store double %60, ptr %62, align 8, !tbaa !54
  %63 = load double, ptr %6, align 8, !tbaa !50
  %64 = fsub nsz double %63, 1.000000e+00
  %65 = load double, ptr %6, align 8, !tbaa !50
  %66 = fadd nsz double %65, 1.000000e+00
  %67 = load double, ptr %7, align 8, !tbaa !50
  %68 = call nsz double @llvm.cos.f64(double %67)
  %69 = call nsz double @llvm.fmuladd.f64(double %66, double %68, double %64)
  %70 = fmul nsz double -2.000000e+00, %69
  %71 = load ptr, ptr %5, align 8, !tbaa !22
  %72 = getelementptr inbounds nuw %struct.CrossfeedContext, ptr %71, i32 0, i32 9
  store double %70, ptr %72, align 8, !tbaa !55
  %73 = load double, ptr %6, align 8, !tbaa !50
  %74 = fadd nsz double %73, 1.000000e+00
  %75 = load double, ptr %6, align 8, !tbaa !50
  %76 = fsub nsz double %75, 1.000000e+00
  %77 = load double, ptr %7, align 8, !tbaa !50
  %78 = call nsz double @llvm.cos.f64(double %77)
  %79 = call nsz double @llvm.fmuladd.f64(double %76, double %78, double %74)
  %80 = load double, ptr %6, align 8, !tbaa !50
  %81 = call nsz double @llvm.sqrt.f64(double %80)
  %82 = fmul nsz double 2.000000e+00, %81
  %83 = load double, ptr %8, align 8, !tbaa !50
  %84 = fneg nsz double %82
  %85 = call nsz double @llvm.fmuladd.f64(double %84, double %83, double %79)
  %86 = load ptr, ptr %5, align 8, !tbaa !22
  %87 = getelementptr inbounds nuw %struct.CrossfeedContext, ptr %86, i32 0, i32 10
  store double %85, ptr %87, align 8, !tbaa !56
  %88 = load double, ptr %6, align 8, !tbaa !50
  %89 = load double, ptr %6, align 8, !tbaa !50
  %90 = fadd nsz double %89, 1.000000e+00
  %91 = load double, ptr %6, align 8, !tbaa !50
  %92 = fsub nsz double %91, 1.000000e+00
  %93 = load double, ptr %7, align 8, !tbaa !50
  %94 = call nsz double @llvm.cos.f64(double %93)
  %95 = fneg nsz double %92
  %96 = call nsz double @llvm.fmuladd.f64(double %95, double %94, double %90)
  %97 = load double, ptr %6, align 8, !tbaa !50
  %98 = call nsz double @llvm.sqrt.f64(double %97)
  %99 = fmul nsz double 2.000000e+00, %98
  %100 = load double, ptr %8, align 8, !tbaa !50
  %101 = call nsz double @llvm.fmuladd.f64(double %99, double %100, double %96)
  %102 = fmul nsz double %88, %101
  %103 = load ptr, ptr %5, align 8, !tbaa !22
  %104 = getelementptr inbounds nuw %struct.CrossfeedContext, ptr %103, i32 0, i32 11
  store double %102, ptr %104, align 8, !tbaa !57
  %105 = load double, ptr %6, align 8, !tbaa !50
  %106 = fmul nsz double 2.000000e+00, %105
  %107 = load double, ptr %6, align 8, !tbaa !50
  %108 = fsub nsz double %107, 1.000000e+00
  %109 = load double, ptr %6, align 8, !tbaa !50
  %110 = fadd nsz double %109, 1.000000e+00
  %111 = load double, ptr %7, align 8, !tbaa !50
  %112 = call nsz double @llvm.cos.f64(double %111)
  %113 = fneg nsz double %110
  %114 = call nsz double @llvm.fmuladd.f64(double %113, double %112, double %108)
  %115 = fmul nsz double %106, %114
  %116 = load ptr, ptr %5, align 8, !tbaa !22
  %117 = getelementptr inbounds nuw %struct.CrossfeedContext, ptr %116, i32 0, i32 12
  store double %115, ptr %117, align 8, !tbaa !58
  %118 = load double, ptr %6, align 8, !tbaa !50
  %119 = load double, ptr %6, align 8, !tbaa !50
  %120 = fadd nsz double %119, 1.000000e+00
  %121 = load double, ptr %6, align 8, !tbaa !50
  %122 = fsub nsz double %121, 1.000000e+00
  %123 = load double, ptr %7, align 8, !tbaa !50
  %124 = call nsz double @llvm.cos.f64(double %123)
  %125 = fneg nsz double %122
  %126 = call nsz double @llvm.fmuladd.f64(double %125, double %124, double %120)
  %127 = load double, ptr %6, align 8, !tbaa !50
  %128 = call nsz double @llvm.sqrt.f64(double %127)
  %129 = fmul nsz double 2.000000e+00, %128
  %130 = load double, ptr %8, align 8, !tbaa !50
  %131 = fneg nsz double %129
  %132 = call nsz double @llvm.fmuladd.f64(double %131, double %130, double %126)
  %133 = fmul nsz double %118, %132
  %134 = load ptr, ptr %5, align 8, !tbaa !22
  %135 = getelementptr inbounds nuw %struct.CrossfeedContext, ptr %134, i32 0, i32 13
  store double %133, ptr %135, align 8, !tbaa !59
  %136 = load ptr, ptr %5, align 8, !tbaa !22
  %137 = getelementptr inbounds nuw %struct.CrossfeedContext, ptr %136, i32 0, i32 8
  %138 = load double, ptr %137, align 8, !tbaa !54
  %139 = load ptr, ptr %5, align 8, !tbaa !22
  %140 = getelementptr inbounds nuw %struct.CrossfeedContext, ptr %139, i32 0, i32 9
  %141 = load double, ptr %140, align 8, !tbaa !55
  %142 = fdiv nsz double %141, %138
  store double %142, ptr %140, align 8, !tbaa !55
  %143 = load ptr, ptr %5, align 8, !tbaa !22
  %144 = getelementptr inbounds nuw %struct.CrossfeedContext, ptr %143, i32 0, i32 8
  %145 = load double, ptr %144, align 8, !tbaa !54
  %146 = load ptr, ptr %5, align 8, !tbaa !22
  %147 = getelementptr inbounds nuw %struct.CrossfeedContext, ptr %146, i32 0, i32 10
  %148 = load double, ptr %147, align 8, !tbaa !56
  %149 = fdiv nsz double %148, %145
  store double %149, ptr %147, align 8, !tbaa !56
  %150 = load ptr, ptr %5, align 8, !tbaa !22
  %151 = getelementptr inbounds nuw %struct.CrossfeedContext, ptr %150, i32 0, i32 8
  %152 = load double, ptr %151, align 8, !tbaa !54
  %153 = load ptr, ptr %5, align 8, !tbaa !22
  %154 = getelementptr inbounds nuw %struct.CrossfeedContext, ptr %153, i32 0, i32 11
  %155 = load double, ptr %154, align 8, !tbaa !57
  %156 = fdiv nsz double %155, %152
  store double %156, ptr %154, align 8, !tbaa !57
  %157 = load ptr, ptr %5, align 8, !tbaa !22
  %158 = getelementptr inbounds nuw %struct.CrossfeedContext, ptr %157, i32 0, i32 8
  %159 = load double, ptr %158, align 8, !tbaa !54
  %160 = load ptr, ptr %5, align 8, !tbaa !22
  %161 = getelementptr inbounds nuw %struct.CrossfeedContext, ptr %160, i32 0, i32 12
  %162 = load double, ptr %161, align 8, !tbaa !58
  %163 = fdiv nsz double %162, %159
  store double %163, ptr %161, align 8, !tbaa !58
  %164 = load ptr, ptr %5, align 8, !tbaa !22
  %165 = getelementptr inbounds nuw %struct.CrossfeedContext, ptr %164, i32 0, i32 8
  %166 = load double, ptr %165, align 8, !tbaa !54
  %167 = load ptr, ptr %5, align 8, !tbaa !22
  %168 = getelementptr inbounds nuw %struct.CrossfeedContext, ptr %167, i32 0, i32 13
  %169 = load double, ptr %168, align 8, !tbaa !59
  %170 = fdiv nsz double %169, %166
  store double %170, ptr %168, align 8, !tbaa !59
  %171 = load ptr, ptr %5, align 8, !tbaa !22
  %172 = getelementptr inbounds nuw %struct.CrossfeedContext, ptr %171, i32 0, i32 6
  %173 = load i32, ptr %172, align 8, !tbaa !36
  %174 = icmp eq i32 %173, 0
  br i1 %174, label %175, label %225

175:                                              ; preds = %1
  %176 = load ptr, ptr %5, align 8, !tbaa !22
  %177 = getelementptr inbounds nuw %struct.CrossfeedContext, ptr %176, i32 0, i32 7
  %178 = load i32, ptr %177, align 4, !tbaa !60
  %179 = icmp sgt i32 %178, 0
  br i1 %179, label %180, label %225

180:                                              ; preds = %175
  %181 = load ptr, ptr %5, align 8, !tbaa !22
  %182 = getelementptr inbounds nuw %struct.CrossfeedContext, ptr %181, i32 0, i32 7
  %183 = load i32, ptr %182, align 4, !tbaa !60
  %184 = load ptr, ptr %5, align 8, !tbaa !22
  %185 = getelementptr inbounds nuw %struct.CrossfeedContext, ptr %184, i32 0, i32 6
  store i32 %183, ptr %185, align 8, !tbaa !36
  %186 = load ptr, ptr %5, align 8, !tbaa !22
  %187 = getelementptr inbounds nuw %struct.CrossfeedContext, ptr %186, i32 0, i32 6
  %188 = load i32, ptr %187, align 8, !tbaa !36
  %189 = mul nsw i32 %188, 2
  %190 = sext i32 %189 to i64
  %191 = call noalias ptr @av_calloc(i64 noundef %190, i64 noundef 8)
  %192 = load ptr, ptr %5, align 8, !tbaa !22
  %193 = getelementptr inbounds nuw %struct.CrossfeedContext, ptr %192, i32 0, i32 18
  store ptr %191, ptr %193, align 8, !tbaa !61
  call void @llvm.lifetime.start.p0(i64 4, ptr %9) #8
  store i32 0, ptr %9, align 4, !tbaa !24
  br label %194

194:                                              ; preds = %219, %180
  %195 = load i32, ptr %9, align 4, !tbaa !24
  %196 = icmp slt i32 %195, 3
  br i1 %196, label %198, label %197

197:                                              ; preds = %194
  store i32 2, ptr %10, align 4
  br label %222

198:                                              ; preds = %194
  %199 = load ptr, ptr %5, align 8, !tbaa !22
  %200 = getelementptr inbounds nuw %struct.CrossfeedContext, ptr %199, i32 0, i32 6
  %201 = load i32, ptr %200, align 8, !tbaa !36
  %202 = mul nsw i32 %201, 2
  %203 = sext i32 %202 to i64
  %204 = call noalias ptr @av_calloc(i64 noundef %203, i64 noundef 8)
  %205 = load ptr, ptr %5, align 8, !tbaa !22
  %206 = getelementptr inbounds nuw %struct.CrossfeedContext, ptr %205, i32 0, i32 19
  %207 = load i32, ptr %9, align 4, !tbaa !24
  %208 = sext i32 %207 to i64
  %209 = getelementptr inbounds [3 x ptr], ptr %206, i64 0, i64 %208
  store ptr %204, ptr %209, align 8, !tbaa !62
  %210 = load ptr, ptr %5, align 8, !tbaa !22
  %211 = getelementptr inbounds nuw %struct.CrossfeedContext, ptr %210, i32 0, i32 19
  %212 = load i32, ptr %9, align 4, !tbaa !24
  %213 = sext i32 %212 to i64
  %214 = getelementptr inbounds [3 x ptr], ptr %211, i64 0, i64 %213
  %215 = load ptr, ptr %214, align 8, !tbaa !62
  %216 = icmp ne ptr %215, null
  br i1 %216, label %218, label %217

217:                                              ; preds = %198
  store i32 -12, ptr %2, align 4
  store i32 1, ptr %10, align 4
  br label %222

218:                                              ; preds = %198
  br label %219

219:                                              ; preds = %218
  %220 = load i32, ptr %9, align 4, !tbaa !24
  %221 = add nsw i32 %220, 1
  store i32 %221, ptr %9, align 4, !tbaa !24
  br label %194, !llvm.loop !63

222:                                              ; preds = %217, %197
  call void @llvm.lifetime.end.p0(i64 4, ptr %9) #8
  %223 = load i32, ptr %10, align 4
  switch i32 %223, label %226 [
    i32 2, label %224
  ]

224:                                              ; preds = %222
  br label %225

225:                                              ; preds = %224, %175, %1
  store i32 0, ptr %2, align 4
  store i32 1, ptr %10, align 4
  br label %226

226:                                              ; preds = %225, %222
  call void @llvm.lifetime.end.p0(i64 8, ptr %8) #8
  call void @llvm.lifetime.end.p0(i64 8, ptr %7) #8
  call void @llvm.lifetime.end.p0(i64 8, ptr %6) #8
  call void @llvm.lifetime.end.p0(i64 8, ptr %5) #8
  call void @llvm.lifetime.end.p0(i64 8, ptr %4) #8
  %227 = load i32, ptr %2, align 4
  ret i32 %227
}