; Function Attrs: nounwind uwtable
define internal range(i32 -12, 1) i32 @config_input(ptr noundef readonly captures(none) %0) #1 {
  %2 = getelementptr inbounds nuw i8, ptr %0, i64 16
  %3 = load ptr, ptr %2, align 8, !tbaa !32
  %4 = getelementptr inbounds nuw i8, ptr %3, i64 72
  %5 = load ptr, ptr %4, align 8, !tbaa !4
  %6 = getelementptr inbounds nuw i8, ptr %5, i64 16
  %7 = load double, ptr %6, align 8, !tbaa !43
  %8 = fmul nsz double %7, -3.000000e+01
  %9 = fdiv nsz double %8, 4.000000e+01
  %10 = fmul nsz double %9, 0x400A934F0979A371
  %11 = tail call nsz double @llvm.exp2.f64(double %10)
  %12 = getelementptr inbounds nuw i8, ptr %5, i64 8
  %13 = load double, ptr %12, align 8, !tbaa !44
  %14 = fsub nsz double 1.000000e+00, %13
  %15 = fmul nsz double %14, 0x401921FB54442D18
  %16 = fmul nsz double %15, 2.100000e+03
  %17 = getelementptr inbounds nuw i8, ptr %0, i64 64
  %18 = load i32, ptr %17, align 8, !tbaa !45
  %19 = sitofp i32 %18 to double
  %20 = fdiv nsz double %16, %19
  %21 = tail call nsz double @llvm.sin.f64(double %20)
  %22 = fmul nsz double %21, 5.000000e-01
  %23 = fdiv nsz double 1.000000e+00, %11
  %24 = fadd nsz double %11, %23
  %25 = getelementptr inbounds nuw i8, ptr %5, i64 24
  %26 = load double, ptr %25, align 8, !tbaa !46
  %27 = fdiv nsz double 1.000000e+00, %26
  %28 = fadd nsz double %27, -1.000000e+00
  %29 = tail call nsz double @llvm.fmuladd.f64(double %24, double %28, double 2.000000e+00)
  %30 = tail call nsz double @llvm.sqrt.f64(double %29)
  %31 = fmul nsz double %22, %30
  %32 = fadd nsz double %11, 1.000000e+00
  %33 = fadd nsz double %11, -1.000000e+00
  %34 = tail call nsz double @llvm.cos.f64(double %20)
  %35 = tail call nsz double @llvm.fmuladd.f64(double %33, double %34, double %32)
  %36 = tail call nsz double @llvm.sqrt.f64(double %11)
  %37 = fmul nsz double %36, 2.000000e+00
  %38 = tail call nsz double @llvm.fmuladd.f64(double %37, double %31, double %35)
  %39 = getelementptr inbounds nuw i8, ptr %5, i64 56
  store double %38, ptr %39, align 8, !tbaa !47
  %40 = tail call nsz double @llvm.fmuladd.f64(double %32, double %34, double %33)
  %41 = fmul nsz double %40, -2.000000e+00
  %42 = getelementptr inbounds nuw i8, ptr %5, i64 64
  %43 = fneg nsz double %37
  %44 = tail call nsz double @llvm.fmuladd.f64(double %43, double %31, double %35)
  %45 = getelementptr inbounds nuw i8, ptr %5, i64 72
  %46 = fneg nsz double %33
  %47 = tail call nsz double @llvm.fmuladd.f64(double %46, double %34, double %32)
  %48 = tail call nsz double @llvm.fmuladd.f64(double %37, double %31, double %47)
  %49 = fmul nsz double %11, %48
  %50 = getelementptr inbounds nuw i8, ptr %5, i64 80
  %51 = fmul nsz double %11, 2.000000e+00
  %52 = fneg nsz double %32
  %53 = tail call nsz double @llvm.fmuladd.f64(double %52, double %34, double %33)
  %54 = fmul nsz double %51, %53
  %55 = getelementptr inbounds nuw i8, ptr %5, i64 88
  %56 = tail call nsz double @llvm.fmuladd.f64(double %43, double %31, double %47)
  %57 = fmul nsz double %11, %56
  %58 = getelementptr inbounds nuw i8, ptr %5, i64 96
  %59 = fdiv nsz double %41, %38
  store double %59, ptr %42, align 8, !tbaa !48
  %60 = fdiv nsz double %44, %38
  store double %60, ptr %45, align 8, !tbaa !49
  %61 = fdiv nsz double %49, %38
  store double %61, ptr %50, align 8, !tbaa !50
  %62 = fdiv nsz double %54, %38
  store double %62, ptr %55, align 8, !tbaa !51
  %63 = fdiv nsz double %57, %38
  store double %63, ptr %58, align 8, !tbaa !52
  %64 = getelementptr inbounds nuw i8, ptr %5, i64 48
  %65 = load i32, ptr %64, align 8, !tbaa !28
  %66 = icmp eq i32 %65, 0
  br i1 %66, label %67, label %.critedge

67:                                               ; preds = %1
  %68 = getelementptr inbounds nuw i8, ptr %5, i64 52
  %69 = load i32, ptr %68, align 4, !tbaa !53
  %70 = icmp sgt i32 %69, 0
  br i1 %70, label %71, label %.critedge

71:                                               ; preds = %67
  store i32 %69, ptr %64, align 8, !tbaa !28
  %72 = shl nuw nsw i32 %69, 1
  %73 = zext nneg i32 %72 to i64
  %74 = tail call noalias ptr @av_calloc(i64 noundef %73, i64 noundef 8) #7
  %75 = getelementptr inbounds nuw i8, ptr %5, i64 136
  store ptr %74, ptr %75, align 8, !tbaa !54
  %76 = getelementptr inbounds nuw i8, ptr %5, i64 144
  br label %78

77:                                               ; preds = %78
  %indvars.iv.next = add nuw nsw i64 %indvars.iv, 1
  %exitcond = icmp eq i64 %indvars.iv.next, 3
  br i1 %exitcond, label %.critedge, label %78, !llvm.loop !55

78:                                               ; preds = %71, %77
  %indvars.iv = phi i64 [ 0, %71 ], [ %indvars.iv.next, %77 ]
  %79 = load i32, ptr %64, align 8, !tbaa !28
  %80 = shl nsw i32 %79, 1
  %81 = sext i32 %80 to i64
  %82 = tail call noalias ptr @av_calloc(i64 noundef %81, i64 noundef 8) #7
  %83 = getelementptr inbounds nuw [3 x ptr], ptr %76, i64 0, i64 %indvars.iv
  store ptr %82, ptr %83, align 8, !tbaa !56
  %.not = icmp eq ptr %82, null
  br i1 %.not, label %.critedge, label %77

.critedge:                                        ; preds = %77, %78, %1, %67
  %.1 = phi i32 [ 0, %67 ], [ 0, %1 ], [ 0, %77 ], [ -12, %78 ]
  ret i32 %.1
}